; Function Attrs: mustprogress uwtable
define hidden noundef i32 @_ZN7VocData15stringToIntegerENSt7__cxx1112basic_stringIcSt11char_traitsIcESaIcEEE(ptr nonnull readnone align 8 captures(none) %0, ptr noundef nonnull %1) local_unnamed_addr #4 align 2 personality ptr @__gxx_personality_v0 {
  %3 = alloca i32, align 4
  %4 = alloca %"class.std::__cxx11::basic_stringstream", align 8
  %5 = alloca %"class.std::__cxx11::basic_string", align 8
  %6 = alloca %"class.std::allocator", align 1
  call void @llvm.lifetime.start.p0(i64 4, ptr nonnull %3) #32
  store i32 0, ptr %3, align 4, !tbaa !30
  call void @llvm.lifetime.start.p0(i64 392, ptr nonnull %4) #32
  call void @_ZNSt7__cxx1118basic_stringstreamIcSt11char_traitsIcESaIcEEC1ERKNS_12basic_stringIcS2_S3_EESt13_Ios_Openmode(ptr noundef nonnull align 8 dereferenceable(128) %4, ptr noundef nonnull align 8 dereferenceable(32) %1, i32 noundef 24)
  %7 = invoke noundef nonnull align 8 dereferenceable(16) ptr @_ZNSirsERi(ptr noundef nonnull align 8 dereferenceable(16) %4, ptr noundef nonnull align 4 dereferenceable(4) %3)
          to label %8 unwind label %19

8:                                                ; preds = %2
  %9 = load ptr, ptr %7, align 8, !tbaa !32
  %10 = getelementptr i8, ptr %9, i64 -24
  %11 = load i64, ptr %10, align 8
  %12 = getelementptr inbounds i8, ptr %7, i64 %11
  %13 = getelementptr inbounds nuw i8, ptr %12, i64 32
  %14 = load i32, ptr %13, align 8, !tbaa !34
  %15 = and i32 %14, 5
  %.not = icmp eq i32 %15, 0
  br i1 %.not, label %31, label %16

16:                                               ; preds = %8
  call void @llvm.lifetime.start.p0(i64 32, ptr nonnull %5) #32
  call void @llvm.lifetime.start.p0(i64 1, ptr nonnull %6) #32
  invoke void @_ZNSt7__cxx1112basic_stringIcSt11char_traitsIcESaIcEEC2EPKcRKS3_(ptr noundef nonnull align 8 dereferenceable(32) %5, ptr noundef nonnull @.str.134, ptr noundef nonnull align 1 dereferenceable(1) %6)
          to label %17 unwind label %21

17:                                               ; preds = %16
  invoke void @_ZN2cv5errorEiRKNSt7__cxx1112basic_stringIcSt11char_traitsIcESaIcEEEPKcS9_i(i32 noundef -5, ptr noundef nonnull align 8 dereferenceable(32) %5, ptr noundef nonnull @__func__._ZN7VocData15stringToIntegerENSt7__cxx1112basic_stringIcSt11char_traitsIcESaIcEEE, ptr noundef nonnull @.str.12, i32 noundef 1844) #34
          to label %18 unwind label %23

18:                                               ; preds = %17
  unreachable

19:                                               ; preds = %2
  %20 = landingpad { ptr, i32 }
          cleanup
  br label %56

21:                                               ; preds = %16
  %22 = landingpad { ptr, i32 }
          cleanup
  br label %_ZNSt7__cxx1112basic_stringIcSt11char_traitsIcESaIcEED2Ev.exit

23:                                               ; preds = %17
  %24 = landingpad { ptr, i32 }
          cleanup
  %25 = load ptr, ptr %5, align 8, !tbaa !14
  %26 = getelementptr inbounds nuw i8, ptr %5, i64 16
  %27 = icmp eq ptr %25, %26
  br i1 %27, label %_ZNKSt7__cxx1112basic_stringIcSt11char_traitsIcESaIcEE11_M_is_localEv.exit.thread.i.i, label %_ZNKSt7__cxx1112basic_stringIcSt11char_traitsIcESaIcEE11_M_is_localEv.exit.i.i

_ZNKSt7__cxx1112basic_stringIcSt11char_traitsIcESaIcEE11_M_is_localEv.exit.thread.i.i: ; preds = %23
  %28 = getelementptr inbounds nuw i8, ptr %5, i64 8
  %29 = load i64, ptr %28, align 8, !tbaa !10
  %30 = icmp ult i64 %29, 16
  call void @llvm.assume(i1 %30)
  br label %_ZNSt7__cxx1112basic_stringIcSt11char_traitsIcESaIcEED2Ev.exit

_ZNKSt7__cxx1112basic_stringIcSt11char_traitsIcESaIcEE11_M_is_localEv.exit.i.i: ; preds = %23
  call void @_ZdlPv(ptr noundef %25) #33
  br label %_ZNSt7__cxx1112basic_stringIcSt11char_traitsIcESaIcEED2Ev.exit

_ZNSt7__cxx1112basic_stringIcSt11char_traitsIcESaIcEED2Ev.exit: ; preds = %_ZNKSt7__cxx1112basic_stringIcSt11char_traitsIcESaIcEE11_M_is_localEv.exit.i.i, %_ZNKSt7__cxx1112basic_stringIcSt11char_traitsIcESaIcEE11_M_is_localEv.exit.thread.i.i, %21
  %.pn = phi { ptr, i32 } [ %22, %21 ], [ %24, %_ZNKSt7__cxx1112basic_stringIcSt11char_traitsIcESaIcEE11_M_is_localEv.exit.thread.i.i ], [ %24, %_ZNKSt7__cxx1112basic_stringIcSt11char_traitsIcESaIcEE11_M_is_localEv.exit.i.i ]
  call void @llvm.lifetime.end.p0(i64 1, ptr nonnull %6) #32
  call void @llvm.lifetime.end.p0(i64 32, ptr nonnull %5) #32
  br label %56

31:                                               ; preds = %8
  %32 = load i32, ptr %3, align 4, !tbaa !30
  %33 = load ptr, ptr @_ZTTNSt7__cxx1118basic_stringstreamIcSt11char_traitsIcESaIcEEE, align 8
  store ptr %33, ptr %4, align 8, !tbaa !32
  %34 = load ptr, ptr getelementptr inbounds nuw (i8, ptr @_ZTTNSt7__cxx1118basic_stringstreamIcSt11char_traitsIcESaIcEEE, i64 64), align 8
  %35 = getelementptr i8, ptr %33, i64 -24
  %36 = load i64, ptr %35, align 8
  %37 = getelementptr inbounds i8, ptr %4, i64 %36
  store ptr %34, ptr %37, align 8, !tbaa !32
  %38 = load ptr, ptr getelementptr inbounds nuw (i8, ptr @_ZTTNSt7__cxx1118basic_stringstreamIcSt11char_traitsIcESaIcEEE, i64 72), align 8
  %39 = getelementptr inbounds nuw i8, ptr %4, i64 16
  store ptr %38, ptr %39, align 8, !tbaa !32
  %40 = getelementptr inbounds nuw i8, ptr %4, i64 24
  store ptr getelementptr inbounds nuw inrange(-16, 112) (i8, ptr @_ZTVNSt7__cxx1115basic_stringbufIcSt11char_traitsIcESaIcEEE, i64 16), ptr %40, align 8, !tbaa !32
  %41 = getelementptr inbounds nuw i8, ptr %4, i64 96
  %42 = load ptr, ptr %41, align 8, !tbaa !14
  %43 = getelementptr inbounds nuw i8, ptr %4, i64 112
  %44 = icmp eq ptr %42, %43
  br i1 %44, label %_ZNKSt7__cxx1112basic_stringIcSt11char_traitsIcESaIcEE11_M_is_localEv.exit.thread.i.i.i.i.i, label %_ZNKSt7__cxx1112basic_stringIcSt11char_traitsIcESaIcEE11_M_is_localEv.exit.i.i.i.i.i

_ZNKSt7__cxx1112basic_stringIcSt11char_traitsIcESaIcEE11_M_is_localEv.exit.thread.i.i.i.i.i: ; preds = %31
  %45 = getelementptr inbounds nuw i8, ptr %4, i64 104
  %46 = load i64, ptr %45, align 8, !tbaa !10
  %47 = icmp ult i64 %46, 16
  call void @llvm.assume(i1 %47)
  br label %_ZNSt7__cxx1118basic_stringstreamIcSt11char_traitsIcESaIcEED1Ev.exit

_ZNKSt7__cxx1112basic_stringIcSt11char_traitsIcESaIcEE11_M_is_localEv.exit.i.i.i.i.i: ; preds = %31
  call void @_ZdlPv(ptr noundef %42) #33
  br label %_ZNSt7__cxx1118basic_stringstreamIcSt11char_traitsIcESaIcEED1Ev.exit

_ZNSt7__cxx1118basic_stringstreamIcSt11char_traitsIcESaIcEED1Ev.exit: ; preds = %_ZNKSt7__cxx1112basic_stringIcSt11char_traitsIcESaIcEE11_M_is_localEv.exit.thread.i.i.i.i.i, %_ZNKSt7__cxx1112basic_stringIcSt11char_traitsIcESaIcEE11_M_is_localEv.exit.i.i.i.i.i
  store ptr getelementptr inbounds nuw inrange(-16, 112) (i8, ptr @_ZTVSt15basic_streambufIcSt11char_traitsIcEE, i64 16), ptr %40, align 8, !tbaa !32
  %48 = getelementptr inbounds nuw i8, ptr %4, i64 80
  call void @_ZNSt6localeD1Ev(ptr noundef nonnull align 8 dereferenceable(8) %48) #32
  %49 = load ptr, ptr getelementptr inbounds nuw (i8, ptr @_ZTTNSt7__cxx1118basic_stringstreamIcSt11char_traitsIcESaIcEEE, i64 16), align 8
  store ptr %49, ptr %4, align 8, !tbaa !32
  %50 = load ptr, ptr getelementptr inbounds nuw (i8, ptr @_ZTTNSt7__cxx1118basic_stringstreamIcSt11char_traitsIcESaIcEEE, i64 24), align 8
  %51 = getelementptr i8, ptr %49, i64 -24
  %52 = load i64, ptr %51, align 8
  %53 = getelementptr inbounds i8, ptr %4, i64 %52
  store ptr %50, ptr %53, align 8, !tbaa !32
  %54 = getelementptr inbounds nuw i8, ptr %4, i64 8
  store i64 0, ptr %54, align 8, !tbaa !59
  %55 = getelementptr inbounds nuw i8, ptr %4, i64 128
  call void @_ZNSt8ios_baseD2Ev(ptr noundef nonnull align 8 dereferenceable(264) %55) #32
  call void @llvm.lifetime.end.p0(i64 392, ptr nonnull %4) #32
  call void @llvm.lifetime.end.p0(i64 4, ptr nonnull %3) #32
  ret i32 %32

56:                                               ; preds = %_ZNSt7__cxx1112basic_stringIcSt11char_traitsIcESaIcEED2Ev.exit, %19
  %.pn.pn = phi { ptr, i32 } [ %.pn, %_ZNSt7__cxx1112basic_stringIcSt11char_traitsIcESaIcEED2Ev.exit ], [ %20, %19 ]
  call void @_ZNSt7__cxx1118basic_stringstreamIcSt11char_traitsIcESaIcEED1Ev(ptr noundef nonnull align 8 dereferenceable(128) %4) #32
  call void @llvm.lifetime.end.p0(i64 392, ptr nonnull %4) #32
  call void @llvm.lifetime.end.p0(i64 4, ptr nonnull %3) #32
  resume { ptr, i32 } %.pn.pn
}